libcantor_config.so:_ZN8Settings4selfEv
libcantor_config.so:_ZN8SettingsC1Ev
libcantor_config.so:_ZN8SettingsC2Ev
libcantor_config.so:_ZN8SettingsD0Ev
libcantor_config.so:_ZN8SettingsD1Ev
libcantor_config.so:_ZN8SettingsD2Ev
libcantor_pythonbackend.so:_ZN13PythonBackend11qt_metacallEN11QMetaObject4CallEiPPv
libcantor_pythonbackend.so:_ZN13PythonBackend11qt_metacastEPKc
libcantor_pythonbackend.so:_ZN13PythonBackendC1EP7QObject5QListI8QVariantE
libcantor_pythonbackend.so:_ZN13PythonBackendC2EP7QObject5QListI8QVariantE
libcantor_pythonbackend.so:_ZN13PythonBackendD0Ev
libcantor_pythonbackend.so:_ZN13PythonBackendD1Ev
libcantor_pythonbackend.so:_ZN13PythonBackendD2Ev
libcantor_pythonbackend.so:_ZN13PythonSession10readOutputERK7QString
libcantor_pythonbackend.so:_ZN13PythonSession11newVariableE7QString
libcantor_pythonbackend.so:_ZN13PythonSession11qt_metacallEN11QMetaObject4CallEiPPv
libcantor_pythonbackend.so:_ZN13PythonSession11qt_metacastEPKc
libcantor_pythonbackend.so:_ZN13PythonSession12updateOutputEv
libcantor_pythonbackend.so:_ZN13PythonSession13completionForERK7QStringi
libcantor_pythonbackend.so:_ZN13PythonSession13listVariablesEv
libcantor_pythonbackend.so:_ZN13PythonSession13runExpressionEP16PythonExpression
libcantor_pythonbackend.so:_ZN13PythonSession13variableModelEv
libcantor_pythonbackend.so:_ZN13PythonSession15plotFileChangedERK7QString
libcantor_pythonbackend.so:_ZN13PythonSession16identifyKeywordsERK7QString
libcantor_pythonbackend.so:_ZN13PythonSession17syntaxHighlighterEP7QObject
libcantor_pythonbackend.so:_ZN13PythonSession17updateHighlighterEv
libcantor_pythonbackend.so:_ZN13PythonSession18evaluateExpressionERK7QStringN6Cantor10Expression17FinishingBehaviorE
libcantor_pythonbackend.so:_ZN13PythonSession18expressionFinishedEv
libcantor_pythonbackend.so:_ZN13PythonSession20readExpressionOutputERK7QString
libcantor_pythonbackend.so:_ZN13PythonSession22getPythonCommandOutputERK7QString
libcantor_pythonbackend.so:_ZN13PythonSession5loginEv
libcantor_pythonbackend.so:_ZN13PythonSession6logoutEv
libcantor_pythonbackend.so:_ZN13PythonSession9interruptEv
libcantor_pythonbackend.so:_ZN13PythonSessionC1EPN6Cantor7BackendE
libcantor_pythonbackend.so:_ZN13PythonSessionC2EPN6Cantor7BackendE
libcantor_pythonbackend.so:_ZN13PythonSessionD0Ev
libcantor_pythonbackend.so:_ZN13PythonSessionD1Ev
libcantor_pythonbackend.so:_ZN13PythonSessionD2Ev
libcantor_pythonbackend.so:_ZNK13PythonBackend10metaObjectEv
libcantor_pythonbackend.so:_ZNK13PythonBackend12capabilitiesEv
libcantor_pythonbackend.so:_ZNK13PythonBackend14settingsWidgetEP7QWidget
libcantor_pythonbackend.so:_ZNK13PythonSession10metaObjectEv
libcantor_pythonbackend.so:_ZNK13PythonSession20identifyPythonModuleERK7QString
libcantor_pythonbackend.so:_ZNK13PythonSession20runClassOutputPythonEv
libcantor_pythonbackend.so:_ZNK13PythonSession22identifyVariableModuleERK7QString
libcantor_pythonbackend.so:_ZThn16_N13PythonBackendD0Ev
libcantor_pythonbackend.so:_ZThn16_N13PythonBackendD1Ev
libcantorlibs.so.18:_ZN6Cantor10Expression10isInternalEv
libcantorlibs.so.18:_ZN6Cantor10Expression10setCommandERK7QString
libcantorlibs.so.18:_ZN6Cantor10Expression11clearResultEv
libcantorlibs.so.18:_ZN6Cantor10Expression11qt_metacallEN11QMetaObject4CallEiPPv
libcantorlibs.so.18:_ZN6Cantor10Expression11qt_metacastEPKc
libcantorlibs.so.18:_ZN6Cantor10Expression11setInternalEb
libcantorlibs.so.18:_ZN6Cantor10Expression12errorMessageEv
libcantorlibs.so.18:_ZN6Cantor10Expression13latexRenderedEPNS_13LatexRendererEPNS_6ResultE
libcantorlibs.so.18:_ZN6Cantor10Expression13statusChangedENS0_6StatusE
libcantorlibs.so.18:_ZN6Cantor10Expression14addInformationERK7QString
libcantorlibs.so.18:_ZN6Cantor10Expression15setErrorMessageERK7QString
libcantorlibs.so.18:_ZN6Cantor10Expression17finishingBehaviorEv
libcantorlibs.so.18:_ZN6Cantor10Expression18saveAdditionalDataEP4KZip
libcantorlibs.so.18:_ZN6Cantor10Expression19renderResultAsLatexEPNS_6ResultE
libcantorlibs.so.18:_ZN6Cantor10Expression20setFinishingBehaviorENS0_17FinishingBehaviorE
libcantorlibs.so.18:_ZN6Cantor10Expression22additionalLatexHeadersEv
libcantorlibs.so.18:_ZN6Cantor10Expression26needsAdditionalInformationERK7QString
libcantorlibs.so.18:_ZN6Cantor10Expression2idEv
libcantorlibs.so.18:_ZN6Cantor10Expression5setIdEi
libcantorlibs.so.18:_ZN6Cantor10Expression5toXmlER12QDomDocument
libcantorlibs.so.18:_ZN6Cantor10Expression6resultEv
libcantorlibs.so.18:_ZN6Cantor10Expression6statusEv
libcantorlibs.so.18:_ZN6Cantor10Expression7commandEv
libcantorlibs.so.18:_ZN6Cantor10Expression7sessionEv
libcantorlibs.so.18:_ZN6Cantor10Expression9gotResultEv
libcantorlibs.so.18:_ZN6Cantor10Expression9idChangedEv
libcantorlibs.so.18:_ZN6Cantor10Expression9setResultEPNS_6ResultE
libcantorlibs.so.18:_ZN6Cantor10Expression9setStatusENS0_6StatusE
libcantorlibs.so.18:_ZN6Cantor10ExpressionC1EPNS_7SessionE
libcantorlibs.so.18:_ZN6Cantor10ExpressionC2EPNS_7SessionE
libcantorlibs.so.18:_ZN6Cantor10ExpressionD0Ev
libcantorlibs.so.18:_ZN6Cantor10ExpressionD1Ev
libcantorlibs.so.18:_ZN6Cantor10ExpressionD2Ev
libcantorlibs.so.18:_ZN6Cantor10HelpResult4typeEv
libcantorlibs.so.18:_ZN6Cantor10HelpResult5toXmlER12QDomDocument
libcantorlibs.so.18:_ZN6Cantor10HelpResultC1ERK7QString
libcantorlibs.so.18:_ZN6Cantor10HelpResultC2ERK7QString
libcantorlibs.so.18:_ZN6Cantor10HelpResultD0Ev
libcantorlibs.so.18:_ZN6Cantor10HelpResultD1Ev
libcantorlibs.so.18:_ZN6Cantor10HelpResultD2Ev
libcantorlibs.so.18:_ZN6Cantor10TextResult4dataEv
libcantorlibs.so.18:_ZN6Cantor10TextResult4saveERK7QString
libcantorlibs.so.18:_ZN6Cantor10TextResult4typeEv
libcantorlibs.so.18:_ZN6Cantor10TextResult5plainEv
libcantorlibs.so.18:_ZN6Cantor10TextResult5toXmlER12QDomDocument
libcantorlibs.so.18:_ZN6Cantor10TextResult6formatEv
libcantorlibs.so.18:_ZN6Cantor10TextResult6toHtmlEv
libcantorlibs.so.18:_ZN6Cantor10TextResult8mimeTypeEv
libcantorlibs.so.18:_ZN6Cantor10TextResult9setFormatENS0_6FormatE
libcantorlibs.so.18:_ZN6Cantor10TextResultC1ERK7QString
libcantorlibs.so.18:_ZN6Cantor10TextResultC1ERK7QStringS3_
libcantorlibs.so.18:_ZN6Cantor10TextResultC2ERK7QString
libcantorlibs.so.18:_ZN6Cantor10TextResultC2ERK7QStringS3_
libcantorlibs.so.18:_ZN6Cantor10TextResultD0Ev
libcantorlibs.so.18:_ZN6Cantor10TextResultD1Ev
libcantorlibs.so.18:_ZN6Cantor10TextResultD2Ev
libcantorlibs.so.18:_ZN6Cantor11ImageResult18saveAdditionalDataEP4KZip
libcantorlibs.so.18:_ZN6Cantor11ImageResult3urlEv
libcantorlibs.so.18:_ZN6Cantor11ImageResult4dataEv
libcantorlibs.so.18:_ZN6Cantor11ImageResult4saveERK7QString
libcantorlibs.so.18:_ZN6Cantor11ImageResult4typeEv
libcantorlibs.so.18:_ZN6Cantor11ImageResult5toXmlER12QDomDocument
libcantorlibs.so.18:_ZN6Cantor11ImageResult6toHtmlEv
libcantorlibs.so.18:_ZN6Cantor11ImageResult7toLatexEv
libcantorlibs.so.18:_ZN6Cantor11ImageResult8mimeTypeEv
libcantorlibs.so.18:_ZN6Cantor11ImageResultC1ERK4QUrlRK7QString
libcantorlibs.so.18:_ZN6Cantor11ImageResultC2ERK4QUrlRK7QString
libcantorlibs.so.18:_ZN6Cantor11ImageResultD0Ev
libcantorlibs.so.18:_ZN6Cantor11ImageResultD1Ev
libcantorlibs.so.18:_ZN6Cantor11ImageResultD2Ev
libcantorlibs.so.18:_ZN6Cantor11LatexResult11isCodeShownEv
libcantorlibs.so.18:_ZN6Cantor11LatexResult12showRenderedEv
libcantorlibs.so.18:_ZN6Cantor11LatexResult4codeEv
libcantorlibs.so.18:_ZN6Cantor11LatexResult4dataEv
libcantorlibs.so.18:_ZN6Cantor11LatexResult4saveERK7QString
libcantorlibs.so.18:_ZN6Cantor11LatexResult4typeEv
libcantorlibs.so.18:_ZN6Cantor11LatexResult5plainEv
libcantorlibs.so.18:_ZN6Cantor11LatexResult5toXmlER12QDomDocument
libcantorlibs.so.18:_ZN6Cantor11LatexResult6toHtmlEv
libcantorlibs.so.18:_ZN6Cantor11LatexResult7toLatexEv
libcantorlibs.so.18:_ZN6Cantor11LatexResult8mimeTypeEv
libcantorlibs.so.18:_ZN6Cantor11LatexResult8showCodeEv
libcantorlibs.so.18:_ZN6Cantor11LatexResultC1ERK7QStringRK4QUrlS3_
libcantorlibs.so.18:_ZN6Cantor11LatexResultC2ERK7QStringRK4QUrlS3_
libcantorlibs.so.18:_ZN6Cantor11LatexResultD0Ev
libcantorlibs.so.18:_ZN6Cantor11LatexResultD1Ev
libcantorlibs.so.18:_ZN6Cantor11LatexResultD2Ev
libcantorlibs.so.18:_ZN6Cantor11PanelPlugin10setSessionEPNS_7SessionE
libcantorlibs.so.18:_ZN6Cantor11PanelPlugin11qt_metacallEN11QMetaObject4CallEiPPv
libcantorlibs.so.18:_ZN6Cantor11PanelPlugin11qt_metacastEPKc
libcantorlibs.so.18:_ZN6Cantor11PanelPlugin12parentWidgetEv
libcantorlibs.so.18:_ZN6Cantor11PanelPlugin13setPluginInfoERK15KPluginMetaData
libcantorlibs.so.18:_ZN6Cantor11PanelPlugin15setParentWidgetEP7QWidget
libcantorlibs.so.18:_ZN6Cantor11PanelPlugin16onSessionChangedEv
libcantorlibs.so.18:_ZN6Cantor11PanelPlugin17requestRunCommandERK7QString
libcantorlibs.so.18:_ZN6Cantor11PanelPlugin18requiredExtensionsEv
libcantorlibs.so.18:_ZN6Cantor11PanelPlugin19visibilityRequestedEv
libcantorlibs.so.18:_ZN6Cantor11PanelPlugin20requiredCapabilitiesEv
libcantorlibs.so.18:_ZN6Cantor11PanelPlugin4nameEv
libcantorlibs.so.18:_ZN6Cantor11PanelPlugin7sessionEv
libcantorlibs.so.18:_ZN6Cantor11PanelPluginC1EP7QObject
libcantorlibs.so.18:_ZN6Cantor11PanelPluginC2EP7QObject
libcantorlibs.so.18:_ZN6Cantor11PanelPluginD0Ev
libcantorlibs.so.18:_ZN6Cantor11PanelPluginD1Ev
libcantorlibs.so.18:_ZN6Cantor11PanelPluginD2Ev
libcantorlibs.so.18:_ZN6Cantor12CASExtension11qt_metacallEN11QMetaObject4CallEiPPv
libcantorlibs.so.18:_ZN6Cantor12CASExtension11qt_metacastEPKc
libcantorlibs.so.18:_ZN6Cantor12CASExtensionC1EP7QObject
libcantorlibs.so.18:_ZN6Cantor12CASExtensionC2EP7QObject
libcantorlibs.so.18:_ZN6Cantor12CASExtensionD0Ev
libcantorlibs.so.18:_ZN6Cantor12CASExtensionD1Ev
libcantorlibs.so.18:_ZN6Cantor12CASExtensionD2Ev
libcantorlibs.so.18:_ZN6Cantor13LatexRenderer11convertToPsEv
libcantorlibs.so.18:_ZN6Cantor13LatexRenderer11qt_metacallEN11QMetaObject4CallEiPPv
libcantorlibs.so.18:_ZN6Cantor13LatexRenderer11qt_metacastEPKc
libcantorlibs.so.18:_ZN6Cantor13LatexRenderer12setLatexCodeERK7QString
libcantorlibs.so.18:_ZN6Cantor13LatexRenderer13renderWithMmlEv
libcantorlibs.so.18:_ZN6Cantor13LatexRenderer14convertingDoneEv
libcantorlibs.so.18:_ZN6Cantor13LatexRenderer14renderBlockingEv
libcantorlibs.so.18:_ZN6Cantor13LatexRenderer15renderWithLatexEv
libcantorlibs.so.18:_ZN6Cantor13LatexRenderer15setEquationOnlyEb
libcantorlibs.so.18:_ZN6Cantor13LatexRenderer15setEquationTypeENS0_12EquationTypeE
libcantorlibs.so.18:_ZN6Cantor13LatexRenderer15setErrorMessageERK7QString
libcantorlibs.so.18:_ZN6Cantor13LatexRenderer4doneEv
libcantorlibs.so.18:_ZN6Cantor13LatexRenderer5errorEv
libcantorlibs.so.18:_ZN6Cantor13LatexRenderer6renderEv
libcantorlibs.so.18:_ZN6Cantor13LatexRenderer9addHeaderERK7QString
libcantorlibs.so.18:_ZN6Cantor13LatexRenderer9setHeaderERK7QString
libcantorlibs.so.18:_ZN6Cantor13LatexRenderer9setMethodENS0_6MethodE
libcantorlibs.so.18:_ZN6Cantor13LatexRendererC1EP7QObject
libcantorlibs.so.18:_ZN6Cantor13LatexRendererC2EP7QObject
libcantorlibs.so.18:_ZN6Cantor13LatexRendererD0Ev
libcantorlibs.so.18:_ZN6Cantor13LatexRendererD1Ev
libcantorlibs.so.18:_ZN6Cantor13LatexRendererD2Ev
libcantorlibs.so.18:_ZN6Cantor13PlotExtension11qt_metacallEN11QMetaObject4CallEiPPv
libcantorlibs.so.18:_ZN6Cantor13PlotExtension11qt_metacastEPKc
libcantorlibs.so.18:_ZN6Cantor13PlotExtensionC1EP7QObject
libcantorlibs.so.18:_ZN6Cantor13PlotExtensionC2EP7QObject
libcantorlibs.so.18:_ZN6Cantor13PlotExtensionD0Ev
libcantorlibs.so.18:_ZN6Cantor13PlotExtensionD1Ev
libcantorlibs.so.18:_ZN6Cantor13PlotExtensionD2Ev
libcantorlibs.so.18:_ZN6Cantor15AnimationResult18saveAdditionalDataEP4KZip
libcantorlibs.so.18:_ZN6Cantor15AnimationResult3urlEv
libcantorlibs.so.18:_ZN6Cantor15AnimationResult4dataEv
libcantorlibs.so.18:_ZN6Cantor15AnimationResult4saveERK7QString
libcantorlibs.so.18:_ZN6Cantor15AnimationResult4typeEv
libcantorlibs.so.18:_ZN6Cantor15AnimationResult5toXmlER12QDomDocument
libcantorlibs.so.18:_ZN6Cantor15AnimationResult6toHtmlEv
libcantorlibs.so.18:_ZN6Cantor15AnimationResult8mimeTypeEv
libcantorlibs.so.18:_ZN6Cantor15AnimationResultC1ERK4QUrlRK7QString
libcantorlibs.so.18:_ZN6Cantor15AnimationResultC2ERK4QUrlRK7QString
libcantorlibs.so.18:_ZN6Cantor15AnimationResultD0Ev
libcantorlibs.so.18:_ZN6Cantor15AnimationResultD1Ev
libcantorlibs.so.18:_ZN6Cantor15AnimationResultD2Ev
libcantorlibs.so.18:_ZN6Cantor15ScriptExtension11qt_metacallEN11QMetaObject4CallEiPPv
libcantorlibs.so.18:_ZN6Cantor15ScriptExtension11qt_metacastEPKc
libcantorlibs.so.18:_ZN6Cantor15ScriptExtension16commandSeparatorEv
libcantorlibs.so.18:_ZN6Cantor15ScriptExtension21commentEndingSequenceEv
libcantorlibs.so.18:_ZN6Cantor15ScriptExtension23commentStartingSequenceEv
libcantorlibs.so.18:_ZN6Cantor15ScriptExtensionC1EP7QObject
libcantorlibs.so.18:_ZN6Cantor15ScriptExtensionC2EP7QObject
libcantorlibs.so.18:_ZN6Cantor15ScriptExtensionD0Ev
libcantorlibs.so.18:_ZN6Cantor15ScriptExtensionD1Ev
libcantorlibs.so.18:_ZN6Cantor15ScriptExtensionD2Ev
libcantorlibs.so.18:_ZN6Cantor16CompletionObject10setCommandERK7QString
libcantorlibs.so.18:_ZN6Cantor16CompletionObject10updateLineERK7QStringi
libcantorlibs.so.18:_ZN6Cantor16CompletionObject11qt_metacallEN11QMetaObject4CallEiPPv
libcantorlibs.so.18:_ZN6Cantor16CompletionObject11qt_metacastEPKc
libcantorlibs.so.18:_ZN6Cantor16CompletionObject12completeLineERK7QStringNS0_18LineCompletionModeE
libcantorlibs.so.18:_ZN6Cantor16CompletionObject12fetchingDoneEv
libcantorlibs.so.18:_ZN6Cantor16CompletionObject14findCompletionEv
libcantorlibs.so.18:_ZN6Cantor16CompletionObject14setCompletionsERK11QStringList
libcantorlibs.so.18:_ZN6Cantor16CompletionObject16fetchingTypeDoneENS0_14IdentifierTypeE
libcantorlibs.so.18:_ZN6Cantor16CompletionObject19completeKeywordLineEv
libcantorlibs.so.18:_ZN6Cantor16CompletionObject19completeUnknownLineEv
libcantorlibs.so.18:_ZN6Cantor16CompletionObject19fetchIdentifierTypeEv
libcantorlibs.so.18:_ZN6Cantor16CompletionObject20completeFunctionLineENS0_14IdentifierTypeE
libcantorlibs.so.18:_ZN6Cantor16CompletionObject20completeLineWithTypeENS0_14IdentifierTypeE
libcantorlibs.so.18:_ZN6Cantor16CompletionObject20completeVariableLineEv
libcantorlibs.so.18:_ZN6Cantor16CompletionObject29handleParenCompletionWithTypeENS0_14IdentifierTypeE
libcantorlibs.so.18:_ZN6Cantor16CompletionObject4doneEv
libcantorlibs.so.18:_ZN6Cantor16CompletionObject7setLineERK7QStringi
libcantorlibs.so.18:_ZN6Cantor16CompletionObject8lineDoneE7QStringi
libcantorlibs.so.18:_ZN6Cantor16CompletionObjectC1EPNS_7SessionE
libcantorlibs.so.18:_ZN6Cantor16CompletionObjectC2EPNS_7SessionE
libcantorlibs.so.18:_ZN6Cantor16CompletionObjectD0Ev
libcantorlibs.so.18:_ZN6Cantor16CompletionObjectD1Ev
libcantorlibs.so.18:_ZN6Cantor16CompletionObjectD2Ev
libcantorlibs.so.18:_ZN6Cantor16HistoryExtension11qt_metacallEN11QMetaObject4CallEiPPv
libcantorlibs.so.18:_ZN6Cantor16HistoryExtension11qt_metacastEPKc
libcantorlibs.so.18:_ZN6Cantor16HistoryExtensionC1EP7QObject
libcantorlibs.so.18:_ZN6Cantor16HistoryExtensionC2EP7QObject
libcantorlibs.so.18:_ZN6Cantor16HistoryExtensionD0Ev
libcantorlibs.so.18:_ZN6Cantor16HistoryExtensionD1Ev
libcantorlibs.so.18:_ZN6Cantor16HistoryExtensionD2Ev
libcantorlibs.so.18:_ZN6Cantor16SyntaxHelpObject11qt_metacallEN11QMetaObject4CallEiPPv
libcantorlibs.so.18:_ZN6Cantor16SyntaxHelpObject11qt_metacastEPKc
libcantorlibs.so.18:_ZN6Cantor16SyntaxHelpObject15fetchSyntaxHelpEv
libcantorlibs.so.18:_ZN6Cantor16SyntaxHelpObject4doneEv
libcantorlibs.so.18:_ZN6Cantor16SyntaxHelpObject6toHtmlEv
libcantorlibs.so.18:_ZN6Cantor16SyntaxHelpObject7commandEv
libcantorlibs.so.18:_ZN6Cantor16SyntaxHelpObject7sessionEv
libcantorlibs.so.18:_ZN6Cantor16SyntaxHelpObject7setHtmlERK7QString
libcantorlibs.so.18:_ZN6Cantor16SyntaxHelpObjectC1ERK7QStringPNS_7SessionE
libcantorlibs.so.18:_ZN6Cantor16SyntaxHelpObjectC2ERK7QStringPNS_7SessionE
libcantorlibs.so.18:_ZN6Cantor16SyntaxHelpObjectD0Ev
libcantorlibs.so.18:_ZN6Cantor16SyntaxHelpObjectD1Ev
libcantorlibs.so.18:_ZN6Cantor16SyntaxHelpObjectD2Ev
libcantorlibs.so.18:_ZN6Cantor17CalculusExtension11qt_metacallEN11QMetaObject4CallEiPPv
libcantorlibs.so.18:_ZN6Cantor17CalculusExtension11qt_metacastEPKc
libcantorlibs.so.18:_ZN6Cantor17CalculusExtensionC1EP7QObject
libcantorlibs.so.18:_ZN6Cantor17CalculusExtensionC2EP7QObject
libcantorlibs.so.18:_ZN6Cantor17CalculusExtensionD0Ev
libcantorlibs.so.18:_ZN6Cantor17CalculusExtensionD1Ev
libcantorlibs.so.18:_ZN6Cantor17CalculusExtensionD2Ev
libcantorlibs.so.18:_ZN6Cantor18DefaultHighlighter10removeRuleERK7QRegExp
libcantorlibs.so.18:_ZN6Cantor18DefaultHighlighter10removeRuleERK7QString
libcantorlibs.so.18:_ZN6Cantor18DefaultHighlighter11addKeywordsERK11QStringList
libcantorlibs.so.18:_ZN6Cantor18DefaultHighlighter11qt_metacallEN11QMetaObject4CallEiPPv
libcantorlibs.so.18:_ZN6Cantor18DefaultHighlighter11qt_metacastEPKc
libcantorlibs.so.18:_ZN6Cantor18DefaultHighlighter11removeRulesERK11QStringList
libcantorlibs.so.18:_ZN6Cantor18DefaultHighlighter11setTextItemEP17QGraphicsTextItem
libcantorlibs.so.18:_ZN6Cantor18DefaultHighlighter12addFunctionsERK11QStringList
libcantorlibs.so.18:_ZN6Cantor18DefaultHighlighter12addVariablesERK11QStringList
libcantorlibs.so.18:_ZN6Cantor18DefaultHighlighter12rulesChangedEv
libcantorlibs.so.18:_ZN6Cantor18DefaultHighlighter13updateFormatsEv
libcantorlibs.so.18:_ZN6Cantor18DefaultHighlighter14highlightBlockERK7QString
libcantorlibs.so.18:_ZN6Cantor18DefaultHighlighter14highlightPairsERK7QString
libcantorlibs.so.18:_ZN6Cantor18DefaultHighlighter14highlightWordsERK7QString
libcantorlibs.so.18:_ZN6Cantor18DefaultHighlighter15positionChangedERK11QTextCursor
libcantorlibs.so.18:_ZN6Cantor18DefaultHighlighter16highlightRegExpsERK7QString
libcantorlibs.so.18:_ZN6Cantor18DefaultHighlighter16skipHighlightingERK7QString
libcantorlibs.so.18:_ZN6Cantor18DefaultHighlighter7addPairE5QCharS1_
libcantorlibs.so.18:_ZN6Cantor18DefaultHighlighter7addRuleERK7QRegExpRK15QTextCharFormat
libcantorlibs.so.18:_ZN6Cantor18DefaultHighlighter7addRuleERK7QStringRK15QTextCharFormat
libcantorlibs.so.18:_ZN6Cantor18DefaultHighlighter8addRulesERK11QStringListRK15QTextCharFormat
libcantorlibs.so.18:_ZN6Cantor18DefaultHighlighterC1EP7QObject
libcantorlibs.so.18:_ZN6Cantor18DefaultHighlighterC2EP7QObject
libcantorlibs.so.18:_ZN6Cantor18DefaultHighlighterD0Ev
libcantorlibs.so.18:_ZN6Cantor18DefaultHighlighterD1Ev
libcantorlibs.so.18:_ZN6Cantor18DefaultHighlighterD2Ev
libcantorlibs.so.18:_ZN6Cantor18PackagingExtension11qt_metacallEN11QMetaObject4CallEiPPv
libcantorlibs.so.18:_ZN6Cantor18PackagingExtension11qt_metacastEPKc
libcantorlibs.so.18:_ZN6Cantor18PackagingExtensionC1EP7QObject
libcantorlibs.so.18:_ZN6Cantor18PackagingExtensionC2EP7QObject
libcantorlibs.so.18:_ZN6Cantor18PackagingExtensionD0Ev
libcantorlibs.so.18:_ZN6Cantor18PackagingExtensionD1Ev
libcantorlibs.so.18:_ZN6Cantor18PackagingExtensionD2Ev
libcantorlibs.so.18:_ZN6Cantor18PanelPluginHandler10setSessionEPNS_7SessionE
libcantorlibs.so.18:_ZN6Cantor18PanelPluginHandler11loadPluginsEv
libcantorlibs.so.18:_ZN6Cantor18PanelPluginHandler11qt_metacallEN11QMetaObject4CallEiPPv
libcantorlibs.so.18:_ZN6Cantor18PanelPluginHandler11qt_metacastEPKc
libcantorlibs.so.18:_ZN6Cantor18PanelPluginHandler14pluginsChangedEv
libcantorlibs.so.18:_ZN6Cantor18PanelPluginHandler7pluginsEv
libcantorlibs.so.18:_ZN6Cantor18PanelPluginHandler9addPluginEPNS_11PanelPluginE
libcantorlibs.so.18:_ZN6Cantor18PanelPluginHandlerC1EP7QObject
libcantorlibs.so.18:_ZN6Cantor18PanelPluginHandlerC2EP7QObject
libcantorlibs.so.18:_ZN6Cantor18PanelPluginHandlerD0Ev
libcantorlibs.so.18:_ZN6Cantor18PanelPluginHandlerD1Ev
libcantorlibs.so.18:_ZN6Cantor18PanelPluginHandlerD2Ev
libcantorlibs.so.18:_ZN6Cantor18PlotTitleDirective6widgetEP7QWidget
libcantorlibs.so.18:_ZN6Cantor18PlotTitleDirectiveC1ERK7QString
libcantorlibs.so.18:_ZN6Cantor18PlotTitleDirectiveC2ERK7QString
libcantorlibs.so.18:_ZN6Cantor20DefaultVariableModel11addVariableERK7QStringS3_
libcantorlibs.so.18:_ZN6Cantor20DefaultVariableModel11addVariableERKNS0_8VariableE
libcantorlibs.so.18:_ZN6Cantor20DefaultVariableModel11qt_metacallEN11QMetaObject4CallEiPPv
libcantorlibs.so.18:_ZN6Cantor20DefaultVariableModel11qt_metacastEPKc
libcantorlibs.so.18:_ZN6Cantor20DefaultVariableModel14clearVariablesEv
libcantorlibs.so.18:_ZN6Cantor20DefaultVariableModel14removeVariableERK7QString
libcantorlibs.so.18:_ZN6Cantor20DefaultVariableModel14removeVariableERKNS0_8VariableE
libcantorlibs.so.18:_ZN6Cantor20DefaultVariableModel7setDataERK11QModelIndexRK8QVarianti
libcantorlibs.so.18:_ZN6Cantor20DefaultVariableModelC1EPNS_7SessionE
libcantorlibs.so.18:_ZN6Cantor20DefaultVariableModelC2EPNS_7SessionE
libcantorlibs.so.18:_ZN6Cantor20DefaultVariableModelD0Ev
libcantorlibs.so.18:_ZN6Cantor20DefaultVariableModelD1Ev
libcantorlibs.so.18:_ZN6Cantor20DefaultVariableModelD2Ev
libcantorlibs.so.18:_ZN6Cantor21AbscissScaleDirective6widgetEP7QWidget
libcantorlibs.so.18:_ZN6Cantor21AbscissScaleDirectiveC1Edd
libcantorlibs.so.18:_ZN6Cantor21AbscissScaleDirectiveC2Edd
libcantorlibs.so.18:_ZN6Cantor21AdvancedPlotExtension11qt_metacallEN11QMetaObject4CallEiPPv
libcantorlibs.so.18:_ZN6Cantor21AdvancedPlotExtension11qt_metacastEPKc
libcantorlibs.so.18:_ZN6Cantor21AdvancedPlotExtension12AcceptorBaseC1Ev
libcantorlibs.so.18:_ZN6Cantor21AdvancedPlotExtension12AcceptorBaseC2Ev
libcantorlibs.so.18:_ZN6Cantor21AdvancedPlotExtension12AcceptorBaseD0Ev
libcantorlibs.so.18:_ZN6Cantor21AdvancedPlotExtension12AcceptorBaseD1Ev
libcantorlibs.so.18:_ZN6Cantor21AdvancedPlotExtension12AcceptorBaseD2Ev
libcantorlibs.so.18:_ZN6Cantor21AdvancedPlotExtension13PlotDirective6widgetEP7QWidget
libcantorlibs.so.18:_ZN6Cantor21AdvancedPlotExtension13PlotDirectiveC1Ev
libcantorlibs.so.18:_ZN6Cantor21AdvancedPlotExtension13PlotDirectiveC2Ev
libcantorlibs.so.18:_ZN6Cantor21AdvancedPlotExtension13PlotDirectiveD0Ev
libcantorlibs.so.18:_ZN6Cantor21AdvancedPlotExtension13PlotDirectiveD1Ev
libcantorlibs.so.18:_ZN6Cantor21AdvancedPlotExtension13PlotDirectiveD2Ev
libcantorlibs.so.18:_ZN6Cantor21AdvancedPlotExtension17DirectiveProducerC1EP7QWidget
libcantorlibs.so.18:_ZN6Cantor21AdvancedPlotExtension17DirectiveProducerC2EP7QWidget
libcantorlibs.so.18:_ZN6Cantor21AdvancedPlotExtensionC1EP7QObject
libcantorlibs.so.18:_ZN6Cantor21AdvancedPlotExtensionC2EP7QObject
libcantorlibs.so.18:_ZN6Cantor21AdvancedPlotExtensionD0Ev
libcantorlibs.so.18:_ZN6Cantor21AdvancedPlotExtensionD1Ev
libcantorlibs.so.18:_ZN6Cantor21AdvancedPlotExtensionD2Ev
libcantorlibs.so.18:_ZN6Cantor22AbstractScaleDirectiveC1Edd
libcantorlibs.so.18:_ZN6Cantor22AbstractScaleDirectiveC2Edd
libcantorlibs.so.18:_ZN6Cantor22LinearAlgebraExtension10nullMatrixEii
libcantorlibs.so.18:_ZN6Cantor22LinearAlgebraExtension10nullVectorEiNS0_10VectorTypeE
libcantorlibs.so.18:_ZN6Cantor22LinearAlgebraExtension11qt_metacallEN11QMetaObject4CallEiPPv
libcantorlibs.so.18:_ZN6Cantor22LinearAlgebraExtension11qt_metacastEPKc
libcantorlibs.so.18:_ZN6Cantor22LinearAlgebraExtension14identityMatrixEi
libcantorlibs.so.18:_ZN6Cantor22LinearAlgebraExtensionC1EP7QObject
libcantorlibs.so.18:_ZN6Cantor22LinearAlgebraExtensionC2EP7QObject
libcantorlibs.so.18:_ZN6Cantor22LinearAlgebraExtensionD0Ev
libcantorlibs.so.18:_ZN6Cantor22LinearAlgebraExtensionD1Ev
libcantorlibs.so.18:_ZN6Cantor22LinearAlgebraExtensionD2Ev
libcantorlibs.so.18:_ZN6Cantor22OrdinateScaleDirective6widgetEP7QWidget
libcantorlibs.so.18:_ZN6Cantor22OrdinateScaleDirectiveC1Edd
libcantorlibs.so.18:_ZN6Cantor22OrdinateScaleDirectiveC2Edd
libcantorlibs.so.18:_ZN6Cantor24WorksheetAccessInterface11qt_metacallEN11QMetaObject4CallEiPPv
libcantorlibs.so.18:_ZN6Cantor24WorksheetAccessInterface11qt_metacastEPKc
libcantorlibs.so.18:_ZN6Cantor24WorksheetAccessInterface14sessionChangedEv
libcantorlibs.so.18:_ZN6Cantor24WorksheetAccessInterfaceC1EP7QObject
libcantorlibs.so.18:_ZN6Cantor24WorksheetAccessInterfaceC2EP7QObject
libcantorlibs.so.18:_ZN6Cantor24WorksheetAccessInterfaceD0Ev
libcantorlibs.so.18:_ZN6Cantor24WorksheetAccessInterfaceD1Ev
libcantorlibs.so.18:_ZN6Cantor24WorksheetAccessInterfaceD2Ev
libcantorlibs.so.18:_ZN6Cantor27VariableManagementExtension11qt_metacallEN11QMetaObject4CallEiPPv
libcantorlibs.so.18:_ZN6Cantor27VariableManagementExtension11qt_metacastEPKc
libcantorlibs.so.18:_ZN6Cantor27VariableManagementExtensionC1EP7QObject
libcantorlibs.so.18:_ZN6Cantor27VariableManagementExtensionC2EP7QObject
libcantorlibs.so.18:_ZN6Cantor27VariableManagementExtensionD0Ev
libcantorlibs.so.18:_ZN6Cantor27VariableManagementExtensionD1Ev
libcantorlibs.so.18:_ZN6Cantor27VariableManagementExtensionD2Ev
libcantorlibs.so.18:_ZN6Cantor6Result18saveAdditionalDataEP4KZip
libcantorlibs.so.18:_ZN6Cantor6Result3urlEv
libcantorlibs.so.18:_ZN6Cantor6Result7toLatexEv
libcantorlibs.so.18:_ZN6Cantor6ResultC1Ev
libcantorlibs.so.18:_ZN6Cantor6ResultC2Ev
libcantorlibs.so.18:_ZN6Cantor6ResultD0Ev
libcantorlibs.so.18:_ZN6Cantor6ResultD1Ev
libcantorlibs.so.18:_ZN6Cantor6ResultD2Ev
libcantorlibs.so.18:_ZN6Cantor7Backend10setEnabledEb
libcantorlibs.so.18:_ZN6Cantor7Backend11qt_metacallEN11QMetaObject4CallEiPPv
libcantorlibs.so.18:_ZN6Cantor7Backend11qt_metacastEPKc
libcantorlibs.so.18:_ZN6Cantor7Backend13createBackendERK7QString
libcantorlibs.so.18:_ZN6Cantor7Backend17availableBackendsEv
libcantorlibs.so.18:_ZN6Cantor7Backend21listAvailableBackendsEv
libcantorlibs.so.18:_ZN6Cantor7BackendC1EP7QObjectRK5QListI8QVariantE
libcantorlibs.so.18:_ZN6Cantor7BackendC2EP7QObjectRK5QListI8QVariantE
libcantorlibs.so.18:_ZN6Cantor7BackendD0Ev
libcantorlibs.so.18:_ZN6Cantor7BackendD1Ev
libcantorlibs.so.18:_ZN6Cantor7BackendD2Ev
libcantorlibs.so.18:_ZN6Cantor7Session11qt_metacallEN11QMetaObject4CallEiPPv
libcantorlibs.so.18:_ZN6Cantor7Session11qt_metacastEPKc
libcantorlibs.so.18:_ZN6Cantor7Session12changeStatusENS0_6StatusE
libcantorlibs.so.18:_ZN6Cantor7Session12loginStartedEv
libcantorlibs.so.18:_ZN6Cantor7Session13completionForERK7QStringi
libcantorlibs.so.18:_ZN6Cantor7Session13statusChangedENS0_6StatusE
libcantorlibs.so.18:_ZN6Cantor7Session13syntaxHelpForERK7QString
libcantorlibs.so.18:_ZN6Cantor7Session13variableModelEv
libcantorlibs.so.18:_ZN6Cantor7Session16nextExpressionIdEv
libcantorlibs.so.18:_ZN6Cantor7Session16setWorksheetPathERK7QString
libcantorlibs.so.18:_ZN6Cantor7Session17syntaxHighlighterEP7QObject
libcantorlibs.so.18:_ZN6Cantor7Session18evaluateExpressionERK7QString
libcantorlibs.so.18:_ZN6Cantor7Session20isTypesettingEnabledEv
libcantorlibs.so.18:_ZN6Cantor7Session21setTypesettingEnabledEb
libcantorlibs.so.18:_ZN6Cantor7Session5errorERK7QString
libcantorlibs.so.18:_ZN6Cantor7Session6statusEv
libcantorlibs.so.18:_ZN6Cantor7Session7backendEv
libcantorlibs.so.18:_ZN6Cantor7Session9loginDoneEv
libcantorlibs.so.18:_ZN6Cantor7SessionC1EPNS_7BackendE
libcantorlibs.so.18:_ZN6Cantor7SessionC2EPNS_7BackendE
libcantorlibs.so.18:_ZN6Cantor7SessionD0Ev
libcantorlibs.so.18:_ZN6Cantor7SessionD1Ev
libcantorlibs.so.18:_ZN6Cantor7SessionD2Ev
libcantorlibs.so.18:_ZN6Cantor9Assistant10setBackendEPNS_7BackendE
libcantorlibs.so.18:_ZN6Cantor9Assistant11qt_metacallEN11QMetaObject4CallEiPPv
libcantorlibs.so.18:_ZN6Cantor9Assistant11qt_metacastEPKc
libcantorlibs.so.18:_ZN6Cantor9Assistant13setPluginInfoE15KPluginMetaData
libcantorlibs.so.18:_ZN6Cantor9Assistant18requiredExtensionsEv
libcantorlibs.so.18:_ZN6Cantor9Assistant4iconEv
libcantorlibs.so.18:_ZN6Cantor9Assistant4nameEv
libcantorlibs.so.18:_ZN6Cantor9Assistant7backendEv
libcantorlibs.so.18:_ZN6Cantor9Assistant9requestedEv
libcantorlibs.so.18:_ZN6Cantor9AssistantC1EP7QObject
libcantorlibs.so.18:_ZN6Cantor9AssistantC2EP7QObject
libcantorlibs.so.18:_ZN6Cantor9AssistantD0Ev
libcantorlibs.so.18:_ZN6Cantor9AssistantD1Ev
libcantorlibs.so.18:_ZN6Cantor9AssistantD2Ev
libcantorlibs.so.18:_ZN6Cantor9EpsResult18saveAdditionalDataEP4KZip
libcantorlibs.so.18:_ZN6Cantor9EpsResult3urlEv
libcantorlibs.so.18:_ZN6Cantor9EpsResult4dataEv
libcantorlibs.so.18:_ZN6Cantor9EpsResult4saveERK7QString
libcantorlibs.so.18:_ZN6Cantor9EpsResult4typeEv
libcantorlibs.so.18:_ZN6Cantor9EpsResult5toXmlER12QDomDocument
libcantorlibs.so.18:_ZN6Cantor9EpsResult6toHtmlEv
libcantorlibs.so.18:_ZN6Cantor9EpsResult7toLatexEv
libcantorlibs.so.18:_ZN6Cantor9EpsResult8mimeTypeEv
libcantorlibs.so.18:_ZN6Cantor9EpsResultC1ERK4QUrl
libcantorlibs.so.18:_ZN6Cantor9EpsResultC2ERK4QUrl
libcantorlibs.so.18:_ZN6Cantor9EpsResultD0Ev
libcantorlibs.so.18:_ZN6Cantor9EpsResultD1Ev
libcantorlibs.so.18:_ZN6Cantor9EpsResultD2Ev
libcantorlibs.so.18:_ZN6Cantor9Extension11qt_metacallEN11QMetaObject4CallEiPPv
libcantorlibs.so.18:_ZN6Cantor9Extension11qt_metacastEPKc
libcantorlibs.so.18:_ZN6Cantor9ExtensionC1ERK7QStringP7QObject
libcantorlibs.so.18:_ZN6Cantor9ExtensionC2ERK7QStringP7QObject
libcantorlibs.so.18:_ZN6Cantor9ExtensionD0Ev
libcantorlibs.so.18:_ZN6Cantor9ExtensionD1Ev
libcantorlibs.so.18:_ZN6Cantor9ExtensionD2Ev
libcantorlibs.so.18:_ZNK6Cantor10Expression10metaObjectEv
libcantorlibs.so.18:_ZNK6Cantor11PanelPlugin10metaObjectEv
libcantorlibs.so.18:_ZNK6Cantor12CASExtension10metaObjectEv
libcantorlibs.so.18:_ZNK6Cantor13LatexRenderer10metaObjectEv
libcantorlibs.so.18:_ZNK6Cantor13LatexRenderer12equationTypeEv
libcantorlibs.so.18:_ZNK6Cantor13LatexRenderer12errorMessageEv
libcantorlibs.so.18:_ZNK6Cantor13LatexRenderer14isEquationOnlyEv
libcantorlibs.so.18:_ZNK6Cantor13LatexRenderer19renderingSuccessfulEv
libcantorlibs.so.18:_ZNK6Cantor13LatexRenderer6headerEv
libcantorlibs.so.18:_ZNK6Cantor13LatexRenderer6methodEv
libcantorlibs.so.18:_ZNK6Cantor13LatexRenderer9imagePathEv
libcantorlibs.so.18:_ZNK6Cantor13LatexRenderer9latexCodeEv
libcantorlibs.so.18:_ZNK6Cantor13PlotExtension10metaObjectEv
libcantorlibs.so.18:_ZNK6Cantor15ScriptExtension10metaObjectEv
libcantorlibs.so.18:_ZNK6Cantor16CompletionObject10completionEv
libcantorlibs.so.18:_ZNK6Cantor16CompletionObject10identifierEv
libcantorlibs.so.18:_ZNK6Cantor16CompletionObject10metaObjectEv
libcantorlibs.so.18:_ZNK6Cantor16CompletionObject11completionsEv
libcantorlibs.so.18:_ZNK6Cantor16CompletionObject16locateIdentifierERK7QStringi
libcantorlibs.so.18:_ZNK6Cantor16CompletionObject20mayIdentifierContainE5QChar
libcantorlibs.so.18:_ZNK6Cantor16CompletionObject22mayIdentifierBeginWithE5QChar
libcantorlibs.so.18:_ZNK6Cantor16CompletionObject7commandEv
libcantorlibs.so.18:_ZNK6Cantor16CompletionObject7sessionEv
libcantorlibs.so.18:_ZNK6Cantor16HistoryExtension10metaObjectEv
libcantorlibs.so.18:_ZNK6Cantor16SyntaxHelpObject10metaObjectEv
libcantorlibs.so.18:_ZNK6Cantor17CalculusExtension10metaObjectEv
libcantorlibs.so.18:_ZNK6Cantor18DefaultHighlighter10metaObjectEv
libcantorlibs.so.18:_ZNK6Cantor18DefaultHighlighter11errorFormatEv
libcantorlibs.so.18:_ZNK6Cantor18DefaultHighlighter12numberFormatEv
libcantorlibs.so.18:_ZNK6Cantor18DefaultHighlighter12objectFormatEv
libcantorlibs.so.18:_ZNK6Cantor18DefaultHighlighter12stringFormatEv
libcantorlibs.so.18:_ZNK6Cantor18DefaultHighlighter13commentFormatEv
libcantorlibs.so.18:_ZNK6Cantor18DefaultHighlighter13keywordFormatEv
libcantorlibs.so.18:_ZNK6Cantor18DefaultHighlighter14functionFormatEv
libcantorlibs.so.18:_ZNK6Cantor18DefaultHighlighter14operatorFormatEv
libcantorlibs.so.18:_ZNK6Cantor18DefaultHighlighter14variableFormatEv
libcantorlibs.so.18:_ZNK6Cantor18DefaultHighlighter18matchingPairFormatEv
libcantorlibs.so.18:_ZNK6Cantor18DefaultHighlighter21mismatchingPairFormatEv
libcantorlibs.so.18:_ZNK6Cantor18DefaultHighlighter23nonSeparatingCharactersEv
libcantorlibs.so.18:_ZNK6Cantor18PackagingExtension10metaObjectEv
libcantorlibs.so.18:_ZNK6Cantor18PanelPluginHandler10metaObjectEv
libcantorlibs.so.18:_ZNK6Cantor18PlotTitleDirective5titleEv
libcantorlibs.so.18:_ZNK6Cantor20DefaultVariableModel10headerDataEiN2Qt11OrientationEi
libcantorlibs.so.18:_ZNK6Cantor20DefaultVariableModel10metaObjectEv
libcantorlibs.so.18:_ZNK6Cantor20DefaultVariableModel11columnCountERK11QModelIndex
libcantorlibs.so.18:_ZNK6Cantor20DefaultVariableModel4dataERK11QModelIndexi
libcantorlibs.so.18:_ZNK6Cantor20DefaultVariableModel5flagsERK11QModelIndex
libcantorlibs.so.18:_ZNK6Cantor20DefaultVariableModel7sessionEv
libcantorlibs.so.18:_ZNK6Cantor20DefaultVariableModel8rowCountERK11QModelIndex
libcantorlibs.so.18:_ZNK6Cantor21AdvancedPlotExtension10metaObjectEv
libcantorlibs.so.18:_ZNK6Cantor21AdvancedPlotExtension12AcceptorBase7widgetsEv
libcantorlibs.so.18:_ZNK6Cantor21AdvancedPlotExtension14plotFunction2dERK7QStringRK7QVectorIPNS0_13PlotDirectiveEE
libcantorlibs.so.18:_ZNK6Cantor21AdvancedPlotExtension15separatorSymbolEv
libcantorlibs.so.18:_ZNK6Cantor21AdvancedPlotExtension17dispatchDirectiveERKNS0_13PlotDirectiveE
libcantorlibs.so.18:_ZNK6Cantor22AbstractScaleDirective3maxEv
libcantorlibs.so.18:_ZNK6Cantor22AbstractScaleDirective3minEv
libcantorlibs.so.18:_ZNK6Cantor22LinearAlgebraExtension10metaObjectEv
libcantorlibs.so.18:_ZNK6Cantor24WorksheetAccessInterface10metaObjectEv
libcantorlibs.so.18:_ZNK6Cantor27VariableManagementExtension10metaObjectEv
libcantorlibs.so.18:_ZNK6Cantor7Backend10extensionsEv
libcantorlibs.so.18:_ZNK6Cantor7Backend10metaObjectEv
libcantorlibs.so.18:_ZNK6Cantor7Backend11descriptionEv
libcantorlibs.so.18:_ZNK6Cantor7Backend14settingsWidgetEP7QWidget
libcantorlibs.so.18:_ZNK6Cantor7Backend22requirementsFullfilledEv
libcantorlibs.so.18:_ZNK6Cantor7Backend3urlEv
libcantorlibs.so.18:_ZNK6Cantor7Backend4iconEv
libcantorlibs.so.18:_ZNK6Cantor7Backend4nameEv
libcantorlibs.so.18:_ZNK6Cantor7Backend6configEv
libcantorlibs.so.18:_ZNK6Cantor7Backend7commentEv
libcantorlibs.so.18:_ZNK6Cantor7Backend7helpUrlEv
libcantorlibs.so.18:_ZNK6Cantor7Backend7versionEv
libcantorlibs.so.18:_ZNK6Cantor7Backend9extensionERK7QString
libcantorlibs.so.18:_ZNK6Cantor7Backend9isEnabledEv
libcantorlibs.so.18:_ZNK6Cantor7Session10metaObjectEv
libcantorlibs.so.18:_ZNK6Cantor9Assistant10metaObjectEv
libcantorlibs.so.18:_ZNK6Cantor9Extension10metaObjectEv
libcantorlibs.so.18:_ZThn16_N6Cantor7BackendD0Ev
libcantorlibs.so.18:_ZThn16_N6Cantor7BackendD1Ev
libcantorlibs.so.18:_ZThn16_N6Cantor9AssistantD0Ev
libcantorlibs.so.18:_ZThn16_N6Cantor9AssistantD1Ev
